; Function Attrs: mustprogress uwtable
define void @_ZNK6casadi2MXngEv(ptr dead_on_unwind noalias writable sret(%"class.casadi::MX") align 8 %0, ptr noundef nonnull align 8 dereferenceable(8) %1) local_unnamed_addr #3 align 2 {
  %3 = tail call noundef ptr @_ZNK6casadi12SharedObjectptEv(ptr noundef nonnull align 8 dereferenceable(8) %1)
  %4 = load ptr, ptr %3, align 8
  %5 = getelementptr inbounds i8, ptr %4, i64 296
  %6 = load ptr, ptr %5, align 8
  %7 = tail call noundef i64 %6(ptr noundef nonnull align 8 dereferenceable(64) %3)
  %8 = icmp eq i64 %7, 5
  %9 = tail call noundef ptr @_ZNK6casadi12SharedObjectptEv(ptr noundef nonnull align 8 dereferenceable(8) %1)
  br i1 %8, label %10, label %16

10:                                               ; preds = %2
  %11 = getelementptr inbounds i8, ptr %9, i64 32
  %12 = getelementptr inbounds i8, ptr %9, i64 40
  %13 = load ptr, ptr %12, align 8
  %14 = load ptr, ptr %11, align 8
  %.not.i.i.i.not = icmp eq ptr %13, %14
  br i1 %.not.i.i.i.not, label %15, label %_ZNK6casadi6MXNode3depEx.exit

15:                                               ; preds = %10
  tail call void (ptr, ...) @_ZSt24__throw_out_of_range_fmtPKcz(ptr noundef nonnull @.str.406, i64 noundef 0, i64 noundef 0) #28
  unreachable

_ZNK6casadi6MXNode3depEx.exit:                    ; preds = %10
  tail call void @_ZN6casadi12SharedObjectC2ERKS0_(ptr noundef nonnull align 8 dereferenceable(8) %0, ptr noundef nonnull align 8 dereferenceable(8) %14)
  br label %20

16:                                               ; preds = %2
  %17 = load ptr, ptr %9, align 8
  %18 = getelementptr inbounds i8, ptr %17, i64 760
  %19 = load ptr, ptr %18, align 8
  tail call void %19(ptr dead_on_unwind writable sret(%"class.casadi::MX") align 8 %0, ptr noundef nonnull align 8 dereferenceable(64) %9, i64 noundef 5)
  br label %20

20:                                               ; preds = %16, %_ZNK6casadi6MXNode3depEx.exit
  ret void
}